; Function Attrs: nounwind uwtable
define internal void @module_free(ptr noundef %0) #0 {
  %2 = tail call ptr @PyModule_GetState(ptr noundef %0) #7
  %3 = getelementptr inbounds nuw i8, ptr %2, i64 8
  %4 = load ptr, ptr %3, align 8, !tbaa !10
  %.not.i = icmp eq ptr %4, null
  br i1 %.not.i, label %clear_module_state.exit, label %5

5:                                                ; preds = %1
  store ptr null, ptr %3, align 8, !tbaa !10
  %6 = load i32, ptr %4, align 8, !tbaa !11
  %.not.i.i = icmp sgt i32 %6, -1
  br i1 %.not.i.i, label %7, label %clear_module_state.exit

7:                                                ; preds = %5
  %8 = add nsw i32 %6, -1
  store i32 %8, ptr %4, align 8, !tbaa !11
  %9 = icmp eq i32 %8, 0
  br i1 %9, label %10, label %clear_module_state.exit

10:                                               ; preds = %7
  tail call void @_Py_Dealloc(ptr noundef nonnull %4) #7
  br label %clear_module_state.exit

clear_module_state.exit:                          ; preds = %1, %5, %7, %10
  ret void
}